target datalayout = "e-m:e-p270:32:32-p271:32:32-p272:64:64-i64:64-i128:128-f80:128-n8:16:32:64-S128"
target triple = "x86_64-pc-linux-gnu"

%struct.HWContextType = type { i32, ptr, ptr, i64, i64, i64, ptr, ptr, ptr, ptr, ptr, ptr, ptr, ptr, ptr, ptr, ptr, ptr, ptr, ptr, ptr }
%struct.AVBufferRef = type { ptr, ptr, i64 }
%struct.FFHWFramesContext = type { %struct.AVHWFramesContext, ptr, ptr, ptr, i32 }
%struct.AVHWFramesContext = type { ptr, ptr, ptr, ptr, ptr, ptr, ptr, i32, i32, i32, i32, i32 }

; Function Attrs: nounwind uwtable
define i32 @av_hwframe_transfer_get_formats(ptr noundef %0, i32 noundef %1, ptr noundef %2, i32 noundef %3) #0 {
  %5 = alloca i32, align 4
  %6 = alloca ptr, align 8
  %7 = alloca i32, align 4
  %8 = alloca ptr, align 8
  %9 = alloca i32, align 4
  %10 = alloca ptr, align 8
  %11 = alloca i32, align 4
  store ptr %0, ptr %6, align 8, !tbaa !28
  store i32 %1, ptr %7, align 4, !tbaa !9
  store ptr %2, ptr %8, align 8, !tbaa !75
  store i32 %3, ptr %9, align 4, !tbaa !9
  call void @llvm.lifetime.start.p0(i64 8, ptr %10) #5
  %12 = load ptr, ptr %6, align 8, !tbaa !28
  %13 = getelementptr inbounds nuw %struct.AVBufferRef, ptr %12, i32 0, i32 1
  %14 = load ptr, ptr %13, align 8, !tbaa !37
  store ptr %14, ptr %10, align 8, !tbaa !41
  %15 = load ptr, ptr %10, align 8, !tbaa !41
  %16 = getelementptr inbounds nuw %struct.FFHWFramesContext, ptr %15, i32 0, i32 1
  %17 = load ptr, ptr %16, align 8, !tbaa !54
  %18 = getelementptr inbounds nuw %struct.HWContextType, ptr %17, i32 0, i32 14
  %19 = load ptr, ptr %18, align 8, !tbaa !76
  %20 = icmp ne ptr %19, null
  br i1 %20, label %22, label %21

21:                                               ; preds = %4
  store i32 -38, ptr %5, align 4
  store i32 1, ptr %11, align 4
  br label %33

22:                                               ; preds = %4
  %23 = load ptr, ptr %10, align 8, !tbaa !41
  %24 = getelementptr inbounds nuw %struct.FFHWFramesContext, ptr %23, i32 0, i32 1
  %25 = load ptr, ptr %24, align 8, !tbaa !54
  %26 = getelementptr inbounds nuw %struct.HWContextType, ptr %25, i32 0, i32 14
  %27 = load ptr, ptr %26, align 8, !tbaa !76
  %28 = load ptr, ptr %10, align 8, !tbaa !41
  %29 = getelementptr inbounds nuw %struct.FFHWFramesContext, ptr %28, i32 0, i32 0
  %30 = load i32, ptr %7, align 4, !tbaa !9
  %31 = load ptr, ptr %8, align 8, !tbaa !75
  %32 = call i32 %27(ptr noundef %29, i32 noundef %30, ptr noundef %31)
  store i32 %32, ptr %5, align 4
  store i32 1, ptr %11, align 4
  br label %33

33:                                               ; preds = %22, %21
  call void @llvm.lifetime.end.p0(i64 8, ptr %10) #5
  %34 = load i32, ptr %5, align 4
  ret i32 %34
}