; Function Attrs: nounwind uwtable
define i32 @av_hwframe_transfer_get_formats(ptr noundef readonly captures(none) %0, i32 noundef %1, ptr noundef %2, i32 noundef %3) local_unnamed_addr #5 {
  %5 = getelementptr inbounds nuw i8, ptr %0, i64 8
  %6 = load ptr, ptr %5, align 8, !tbaa !32
  %7 = getelementptr inbounds nuw i8, ptr %6, i64 80
  %8 = load ptr, ptr %7, align 8, !tbaa !48
  %9 = getelementptr inbounds nuw i8, ptr %8, i64 112
  %10 = load ptr, ptr %9, align 8, !tbaa !70
  %.not = icmp eq ptr %10, null
  br i1 %.not, label %13, label %11

11:                                               ; preds = %4
  %12 = tail call i32 %10(ptr noundef nonnull %6, i32 noundef %1, ptr noundef %2) #11
  br label %13

13:                                               ; preds = %4, %11
  %.0 = phi i32 [ %12, %11 ], [ -38, %4 ]
  ret i32 %.0
}